(dp1
S'username'
p2
S'CHAR(512)'
p3
sS'first_name'
p4
S'CHAR(512)'
p5
sS'last_name'
p6
S'CHAR(512)'
p7
sS'registration_id'
p8
S'CHAR(512)'
p9
sS'email'
p10
S'CHAR(512)'
p11
sS'reset_password_key'
p12
S'CHAR(512)'
p13
sS'created_on'
p14
S'TIMESTAMP'
p15
sS'modified_on'
p16
S'TIMESTAMP'
p17
sS'password'
p18
S'CHAR(512)'
p19
sS'registration_key'
p20
S'CHAR(512)'
p21
sS'id'
p22
S'INTEGER PRIMARY KEY AUTOINCREMENT'
p23
s.